ARM GAS  C:\Users\GUILLA~1\AppData\Local\Temp\ccKHd6dc.s 			page 1


   1              		.syntax unified
   2              		.cpu cortex-m3
   3              		.fpu softvfp
   4              		.eabi_attribute 20, 1
   5              		.eabi_attribute 21, 1
   6              		.eabi_attribute 23, 3
   7              		.eabi_attribute 24, 1
   8              		.eabi_attribute 25, 1
   9              		.eabi_attribute 26, 1
  10              		.eabi_attribute 30, 1
  11              		.eabi_attribute 34, 1
  12              		.eabi_attribute 18, 4
  13              		.thumb
  14              		.syntax unified
  15              		.file	"main.c"
  16              		.text
  17              	.Ltext0:
  18              		.cfi_sections	.debug_frame
  19              		.section	.text.main,"ax",%progbits
  20              		.align	2
  21              		.global	main
  22              		.thumb
  23              		.thumb_func
  24              		.type	main, %function
  25              	main:
  26              	.LFB64:
  27              		.file 1 "main.c"
   1:main.c        **** /* ========================================
   2:main.c        ****  *
   3:main.c        ****  * Copyright YOUR COMPANY, THE YEAR
   4:main.c        ****  * All Rights Reserved
   5:main.c        ****  * UNPUBLISHED, LICENSED SOFTWARE.
   6:main.c        ****  *
   7:main.c        ****  * CONFIDENTIAL AND PROPRIETARY INFORMATION
   8:main.c        ****  * WHICH IS THE PROPERTY OF your company.
   9:main.c        ****  *
  10:main.c        ****  * ========================================
  11:main.c        **** */
  12:main.c        **** #include "project.h"
  13:main.c        **** #include <stdio.h>
  14:main.c        **** 
  15:main.c        **** int main(void)
  16:main.c        **** {
  28              		.loc 1 16 0
  29              		.cfi_startproc
  30              		@ args = 0, pretend = 0, frame = 32
  31              		@ frame_needed = 0, uses_anonymous_args = 0
  32 0000 70B5     		push	{r4, r5, r6, lr}
  33              		.cfi_def_cfa_offset 16
  34              		.cfi_offset 4, -16
  35              		.cfi_offset 5, -12
  36              		.cfi_offset 6, -8
  37              		.cfi_offset 14, -4
  38 0002 88B0     		sub	sp, sp, #32
  39              		.cfi_def_cfa_offset 48
  17:main.c        ****     CyGlobalIntEnable; /* Enable global interrupts. */
  40              		.loc 1 17 0
ARM GAS  C:\Users\GUILLA~1\AppData\Local\Temp\ccKHd6dc.s 			page 2


  41              		.syntax unified
  42              	@ 17 "main.c" 1
  43 0004 62B6     		CPSIE   i
  44              	@ 0 "" 2
  18:main.c        ****     IDAC8_Start();
  45              		.loc 1 18 0
  46              		.thumb
  47              		.syntax unified
  48 0006 FFF7FEFF 		bl	IDAC8_Start
  49              	.LVL0:
  19:main.c        ****     
  20:main.c        ****     int16 result1 = 0u;
  21:main.c        ****     int16 result2 = 0u;
  22:main.c        ****     char resultStr1[16u];
  23:main.c        ****     char resultStr2[16u];
  24:main.c        ****     
  25:main.c        ****     /* Start of all components */
  26:main.c        ****     LCD_Start();
  50              		.loc 1 26 0
  51 000a FFF7FEFF 		bl	LCD_Start
  52              	.LVL1:
  27:main.c        ****     LCD_ClearDisplay();
  53              		.loc 1 27 0
  54 000e 0120     		movs	r0, #1
  55 0010 FFF7FEFF 		bl	LCD_WriteControl
  56              	.LVL2:
  28:main.c        **** 
  29:main.c        ****     ADC_SAR_Seq_Start();
  57              		.loc 1 29 0
  58 0014 FFF7FEFF 		bl	ADC_SAR_Seq_Start
  59              	.LVL3:
  30:main.c        ****     ADC_SAR_Seq_StartConvert();
  60              		.loc 1 30 0
  61 0018 FFF7FEFF 		bl	ADC_SAR_Seq_StartConvert
  62              	.LVL4:
  63              	.L2:
  31:main.c        **** 
  32:main.c        ****     
  33:main.c        ****     for(;;) {   
  34:main.c        ****         ADC_SAR_Seq_IsEndConversion(ADC_SAR_Seq_WAIT_FOR_RESULT);
  64              		.loc 1 34 0 discriminator 1
  65 001c 0020     		movs	r0, #0
  66 001e FFF7FEFF 		bl	ADC_SAR_Seq_IsEndConversion
  67              	.LVL5:
  35:main.c        ****         result1 = ADC_SAR_Seq_GetResult16(0u);
  68              		.loc 1 35 0 discriminator 1
  69 0022 0020     		movs	r0, #0
  70 0024 FFF7FEFF 		bl	ADC_SAR_Seq_GetResult16
  71              	.LVL6:
  72 0028 0446     		mov	r4, r0
  73              	.LVL7:
  36:main.c        ****         result2 = ADC_SAR_Seq_GetResult16(1u);
  74              		.loc 1 36 0 discriminator 1
  75 002a 0120     		movs	r0, #1
  76 002c FFF7FEFF 		bl	ADC_SAR_Seq_GetResult16
  77              	.LVL8:
  78 0030 0646     		mov	r6, r0
ARM GAS  C:\Users\GUILLA~1\AppData\Local\Temp\ccKHd6dc.s 			page 3


  79              	.LVL9:
  37:main.c        ****         
  38:main.c        ****         LCD_ClearDisplay();
  80              		.loc 1 38 0 discriminator 1
  81 0032 0120     		movs	r0, #1
  82 0034 FFF7FEFF 		bl	LCD_WriteControl
  83              	.LVL10:
  39:main.c        ****         LCD_Position(0u,0u); 
  84              		.loc 1 39 0 discriminator 1
  85 0038 0021     		movs	r1, #0
  86 003a 0846     		mov	r0, r1
  87 003c FFF7FEFF 		bl	LCD_Position
  88              	.LVL11:
  40:main.c        ****         LCD_PrintString("C1");
  89              		.loc 1 40 0 discriminator 1
  90 0040 1148     		ldr	r0, .L4
  91 0042 FFF7FEFF 		bl	LCD_PrintString
  92              	.LVL12:
  41:main.c        ****         sprintf((char *)resultStr1," %d",result1);
  93              		.loc 1 41 0 discriminator 1
  94 0046 114D     		ldr	r5, .L4+4
  95 0048 2246     		mov	r2, r4
  96 004a 2946     		mov	r1, r5
  97 004c 04A8     		add	r0, sp, #16
  98 004e FFF7FEFF 		bl	sprintf
  99              	.LVL13:
  42:main.c        ****         LCD_PrintString(resultStr1);
 100              		.loc 1 42 0 discriminator 1
 101 0052 04A8     		add	r0, sp, #16
 102 0054 FFF7FEFF 		bl	LCD_PrintString
 103              	.LVL14:
  43:main.c        ****         
  44:main.c        ****         LCD_Position(1u,0u); 
 104              		.loc 1 44 0 discriminator 1
 105 0058 0021     		movs	r1, #0
 106 005a 0120     		movs	r0, #1
 107 005c FFF7FEFF 		bl	LCD_Position
 108              	.LVL15:
  45:main.c        ****         LCD_PrintString("C2");
 109              		.loc 1 45 0 discriminator 1
 110 0060 0B48     		ldr	r0, .L4+8
 111 0062 FFF7FEFF 		bl	LCD_PrintString
 112              	.LVL16:
  46:main.c        ****         sprintf((char *)resultStr2," %d",result2);
 113              		.loc 1 46 0 discriminator 1
 114 0066 3246     		mov	r2, r6
 115 0068 2946     		mov	r1, r5
 116 006a 6846     		mov	r0, sp
 117 006c FFF7FEFF 		bl	sprintf
 118              	.LVL17:
  47:main.c        ****         LCD_PrintString(resultStr2);
 119              		.loc 1 47 0 discriminator 1
 120 0070 6846     		mov	r0, sp
 121 0072 FFF7FEFF 		bl	LCD_PrintString
 122              	.LVL18:
  48:main.c        ****         
  49:main.c        ****         Control_Reg_1_Write(result1>>8);
ARM GAS  C:\Users\GUILLA~1\AppData\Local\Temp\ccKHd6dc.s 			page 4


 123              		.loc 1 49 0 discriminator 1
 124 0076 C4F30720 		ubfx	r0, r4, #8, #8
 125 007a FFF7FEFF 		bl	Control_Reg_1_Write
 126              	.LVL19:
  50:main.c        ****         
  51:main.c        ****         
  52:main.c        ****         CyDelay(100u);
 127              		.loc 1 52 0 discriminator 1
 128 007e 6420     		movs	r0, #100
 129 0080 FFF7FEFF 		bl	CyDelay
 130              	.LVL20:
 131 0084 CAE7     		b	.L2
 132              	.L5:
 133 0086 00BF     		.align	2
 134              	.L4:
 135 0088 00000000 		.word	.LC0
 136 008c 04000000 		.word	.LC1
 137 0090 08000000 		.word	.LC2
 138              		.cfi_endproc
 139              	.LFE64:
 140              		.size	main, .-main
 141              		.section	.rodata.str1.4,"aMS",%progbits,1
 142              		.align	2
 143              	.LC0:
 144 0000 433100   		.ascii	"C1\000"
 145 0003 00       		.space	1
 146              	.LC1:
 147 0004 20256400 		.ascii	" %d\000"
 148              	.LC2:
 149 0008 433200   		.ascii	"C2\000"
 150              		.text
 151              	.Letext0:
 152              		.file 2 "d:\\program files (x86)\\cypress\\psoc creator\\4.4\\psoc creator\\import\\gnu\\arm\\5.4.
 153              		.file 3 "d:\\program files (x86)\\cypress\\psoc creator\\4.4\\psoc creator\\import\\gnu\\arm\\5.4.
 154              		.file 4 "Generated_Source\\PSoC5/cytypes.h"
 155              		.file 5 "Generated_Source\\PSoC5/IDAC8.h"
 156              		.file 6 "Generated_Source\\PSoC5/LCD.h"
 157              		.file 7 "Generated_Source\\PSoC5/ADC_SAR_Seq.h"
 158              		.file 8 "d:\\program files (x86)\\cypress\\psoc creator\\4.4\\psoc creator\\import\\gnu\\arm\\5.4.
 159              		.file 9 "Generated_Source\\PSoC5/Control_Reg_1.h"
 160              		.file 10 "Generated_Source\\PSoC5/CyLib.h"
 161              		.file 11 "Generated_Source\\PSoC5/core_cm3.h"